; ModuleID = '29/823.c'
source_filename = "29/823.c"
target datalayout = "e-m:e-p270:32:32-p271:32:32-p272:64:64-i64:64-f80:128-n8:16:32:64-S128"
target triple = "x86_64-pc-linux-gnu"

@.str = private unnamed_addr constant [3 x i8] c"%d\00", align 1
@.str.1 = private unnamed_addr constant [7 x i8] c"%.3lf\0A\00", align 1

; Function Attrs: noinline nounwind uwtable
define dso_local i32 @main(i32 %0, i8** %1) #0 {
  %3 = alloca i32, align 4
  %4 = alloca i32, align 4
  %5 = alloca i8**, align 8
  %6 = alloca i32, align 4
  %7 = alloca i32, align 4
  %8 = alloca i32, align 4
  %9 = alloca i32, align 4
  %10 = alloca i32, align 4
  %11 = alloca [100 x double], align 16
  %12 = alloca i32, align 4
  %13 = alloca i32, align 4
  %14 = alloca i32, align 4
  store i32 0, i32* %3, align 4
  store i32 %0, i32* %4, align 4
  store i8** %1, i8*** %5, align 8
  store i32 1, i32* %7, align 4
  store i32 2, i32* %8, align 4
  %15 = call i32 (i8*, ...) @__isoc99_scanf(i8* getelementptr inbounds ([3 x i8], [3 x i8]* @.str, i64 0, i64 0), i32* %6)
  %16 = bitcast [100 x double]* %11 to i8*
  call void @llvm.memset.p0i8.i64(i8* align 16 %16, i8 0, i64 800, i1 false)
  store i32 0, i32* %12, align 4
  br label %17

17:                                               ; preds = %50, %2
  %18 = load i32, i32* %12, align 4
  %19 = load i32, i32* %6, align 4
  %20 = icmp slt i32 %18, %19
  br i1 %20, label %21, label %53

21:                                               ; preds = %17
  %22 = call i32 (i8*, ...) @__isoc99_scanf(i8* getelementptr inbounds ([3 x i8], [3 x i8]* @.str, i64 0, i64 0), i32* %10)
  store i32 0, i32* %13, align 4
  br label %23

23:                                               ; preds = %46, %21
  %24 = load i32, i32* %13, align 4
  %25 = load i32, i32* %10, align 4
  %26 = icmp slt i32 %24, %25
  br i1 %26, label %27, label %49

27:                                               ; preds = %23
  %28 = load i32, i32* %12, align 4
  %29 = sext i32 %28 to i64
  %30 = getelementptr inbounds [100 x double], [100 x double]* %11, i64 0, i64 %29
  %31 = load double, double* %30, align 8
  %32 = load i32, i32* %8, align 4
  %33 = sitofp i32 %32 to double
  %34 = load i32, i32* %7, align 4
  %35 = sitofp i32 %34 to double
  %36 = fdiv double %33, %35
  %37 = fadd double %31, %36
  %38 = load i32, i32* %12, align 4
  %39 = sext i32 %38 to i64
  %40 = getelementptr inbounds [100 x double], [100 x double]* %11, i64 0, i64 %39
  store double %37, double* %40, align 8
  %41 = load i32, i32* %7, align 4
  store i32 %41, i32* %9, align 4
  %42 = load i32, i32* %8, align 4
  store i32 %42, i32* %7, align 4
  %43 = load i32, i32* %8, align 4
  %44 = load i32, i32* %9, align 4
  %45 = add nsw i32 %43, %44
  store i32 %45, i32* %8, align 4
  br label %46

46:                                               ; preds = %27
  %47 = load i32, i32* %13, align 4
  %48 = add nsw i32 %47, 1
  store i32 %48, i32* %13, align 4
  br label %23

49:                                               ; preds = %23
  store i32 1, i32* %7, align 4
  store i32 2, i32* %8, align 4
  br label %50

50:                                               ; preds = %49
  %51 = load i32, i32* %12, align 4
  %52 = add nsw i32 %51, 1
  store i32 %52, i32* %12, align 4
  br label %17

53:                                               ; preds = %17
  store i32 0, i32* %14, align 4
  br label %54

54:                                               ; preds = %64, %53
  %55 = load i32, i32* %14, align 4
  %56 = load i32, i32* %6, align 4
  %57 = icmp slt i32 %55, %56
  br i1 %57, label %58, label %67

58:                                               ; preds = %54
  %59 = load i32, i32* %14, align 4
  %60 = sext i32 %59 to i64
  %61 = getelementptr inbounds [100 x double], [100 x double]* %11, i64 0, i64 %60
  %62 = load double, double* %61, align 8
  %63 = call i32 (i8*, ...) @printf(i8* getelementptr inbounds ([7 x i8], [7 x i8]* @.str.1, i64 0, i64 0), double %62)
  br label %64

64:                                               ; preds = %58
  %65 = load i32, i32* %14, align 4
  %66 = add nsw i32 %65, 1
  store i32 %66, i32* %14, align 4
  br label %54

67:                                               ; preds = %54
  ret i32 0
}

declare dso_local i32 @__isoc99_scanf(i8*, ...) #1

; Function Attrs: argmemonly nounwind willreturn
declare void @llvm.memset.p0i8.i64(i8* nocapture writeonly, i8, i64, i1 immarg) #2

declare dso_local i32 @printf(i8*, ...) #1


!llvm.module.flags = !{!0}
!llvm.ident = !{!1}

!0 = !{i32 1, !"wchar_size", i32 4}
!1 = !{!"clang version 10.0.0-4ubuntu1 "}
